target datalayout = "e-m:e-p270:32:32-p271:32:32-p272:64:64-i64:64-i128:128-f80:128-n8:16:32:64-S128"
target triple = "x86_64-pc-linux-gnu"

%"class.std::__1::__shared_count" = type { ptr, i64 }

; Function Attrs: noinline noreturn nounwind uwtable
define linkonce_odr hidden void @__clang_call_terminate(ptr noundef %0) #5 comdat {
  %2 = call ptr @__cxa_begin_catch(ptr %0) #8
  call void @_ZSt9terminatev() #10
  unreachable
}

; Function Attrs: inlinehint mustprogress nounwind uwtable
define internal noundef zeroext i1 @_ZNSt3__112_GLOBAL__N_132__libcpp_atomic_compare_exchangeB8ne210000IlEEbPT_S3_S2_ii(ptr noundef %0, ptr noundef %1, i64 noundef %2, i32 noundef %3, i32 noundef %4) #4 {
  %6 = alloca ptr, align 8
  %7 = alloca ptr, align 8
  %8 = alloca i64, align 8
  %9 = alloca i32, align 4
  %10 = alloca i32, align 4
  %11 = alloca i64, align 8
  %12 = alloca i8, align 1
  store ptr %0, ptr %6, align 8, !tbaa !14
  store ptr %1, ptr %7, align 8, !tbaa !14
  store i64 %2, ptr %8, align 8, !tbaa !16
  store i32 %3, ptr %9, align 4, !tbaa !20
  store i32 %4, ptr %10, align 4, !tbaa !20
  %13 = load ptr, ptr %6, align 8, !tbaa !14
  %14 = load i32, ptr %9, align 4, !tbaa !20
  %15 = load ptr, ptr %7, align 8, !tbaa !14
  %16 = load i64, ptr %8, align 8, !tbaa !16
  store i64 %16, ptr %11, align 8, !tbaa !16
  %17 = load i32, ptr %10, align 4, !tbaa !20
  switch i32 %14, label %18 [
    i32 1, label %19
    i32 2, label %19
    i32 3, label %20
    i32 4, label %21
    i32 5, label %22
  ]

18:                                               ; preds = %5
  switch i32 %17, label %26 [
    i32 1, label %32
    i32 2, label %32
    i32 5, label %38
  ]

19:                                               ; preds = %5, %5
  switch i32 %17, label %54 [
    i32 1, label %60
    i32 2, label %60
    i32 5, label %66
  ]

20:                                               ; preds = %5
  switch i32 %17, label %82 [
    i32 1, label %88
    i32 2, label %88
    i32 5, label %94
  ]

21:                                               ; preds = %5
  switch i32 %17, label %110 [
    i32 1, label %116
    i32 2, label %116
    i32 5, label %122
  ]

22:                                               ; preds = %5
  switch i32 %17, label %138 [
    i32 1, label %144
    i32 2, label %144
    i32 5, label %150
  ]

23:                                               ; preds = %156, %128, %100, %72, %44
  %24 = load i8, ptr %12, align 1, !tbaa !24, !range !26, !noundef !27
  %25 = trunc i8 %24 to i1
  ret i1 %25

26:                                               ; preds = %18
  %27 = load i64, ptr %15, align 8
  %28 = load i64, ptr %11, align 8
  %29 = cmpxchg weak ptr %13, i64 %27, i64 %28 monotonic monotonic, align 8
  %30 = extractvalue { i64, i1 } %29, 0
  %31 = extractvalue { i64, i1 } %29, 1
  br i1 %31, label %46, label %45

32:                                               ; preds = %18, %18
  %33 = load i64, ptr %15, align 8
  %34 = load i64, ptr %11, align 8
  %35 = cmpxchg weak ptr %13, i64 %33, i64 %34 monotonic acquire, align 8
  %36 = extractvalue { i64, i1 } %35, 0
  %37 = extractvalue { i64, i1 } %35, 1
  br i1 %37, label %49, label %48

38:                                               ; preds = %18
  %39 = load i64, ptr %15, align 8
  %40 = load i64, ptr %11, align 8
  %41 = cmpxchg weak ptr %13, i64 %39, i64 %40 monotonic seq_cst, align 8
  %42 = extractvalue { i64, i1 } %41, 0
  %43 = extractvalue { i64, i1 } %41, 1
  br i1 %43, label %52, label %51

44:                                               ; preds = %52, %49, %46
  br label %23

45:                                               ; preds = %26
  store i64 %30, ptr %15, align 8
  br label %46

46:                                               ; preds = %45, %26
  %47 = zext i1 %31 to i8
  store i8 %47, ptr %12, align 1, !tbaa !24
  br label %44

48:                                               ; preds = %32
  store i64 %36, ptr %15, align 8
  br label %49

49:                                               ; preds = %48, %32
  %50 = zext i1 %37 to i8
  store i8 %50, ptr %12, align 1, !tbaa !24
  br label %44

51:                                               ; preds = %38
  store i64 %42, ptr %15, align 8
  br label %52

52:                                               ; preds = %51, %38
  %53 = zext i1 %43 to i8
  store i8 %53, ptr %12, align 1, !tbaa !24
  br label %44

54:                                               ; preds = %19
  %55 = load i64, ptr %15, align 8
  %56 = load i64, ptr %11, align 8
  %57 = cmpxchg weak ptr %13, i64 %55, i64 %56 acquire monotonic, align 8
  %58 = extractvalue { i64, i1 } %57, 0
  %59 = extractvalue { i64, i1 } %57, 1
  br i1 %59, label %74, label %73

60:                                               ; preds = %19, %19
  %61 = load i64, ptr %15, align 8
  %62 = load i64, ptr %11, align 8
  %63 = cmpxchg weak ptr %13, i64 %61, i64 %62 acquire acquire, align 8
  %64 = extractvalue { i64, i1 } %63, 0
  %65 = extractvalue { i64, i1 } %63, 1
  br i1 %65, label %77, label %76

66:                                               ; preds = %19
  %67 = load i64, ptr %15, align 8
  %68 = load i64, ptr %11, align 8
  %69 = cmpxchg weak ptr %13, i64 %67, i64 %68 acquire seq_cst, align 8
  %70 = extractvalue { i64, i1 } %69, 0
  %71 = extractvalue { i64, i1 } %69, 1
  br i1 %71, label %80, label %79

72:                                               ; preds = %80, %77, %74
  br label %23

73:                                               ; preds = %54
  store i64 %58, ptr %15, align 8
  br label %74

74:                                               ; preds = %73, %54
  %75 = zext i1 %59 to i8
  store i8 %75, ptr %12, align 1, !tbaa !24
  br label %72

76:                                               ; preds = %60
  store i64 %64, ptr %15, align 8
  br label %77

77:                                               ; preds = %76, %60
  %78 = zext i1 %65 to i8
  store i8 %78, ptr %12, align 1, !tbaa !24
  br label %72

79:                                               ; preds = %66
  store i64 %70, ptr %15, align 8
  br label %80

80:                                               ; preds = %79, %66
  %81 = zext i1 %71 to i8
  store i8 %81, ptr %12, align 1, !tbaa !24
  br label %72

82:                                               ; preds = %20
  %83 = load i64, ptr %15, align 8
  %84 = load i64, ptr %11, align 8
  %85 = cmpxchg weak ptr %13, i64 %83, i64 %84 release monotonic, align 8
  %86 = extractvalue { i64, i1 } %85, 0
  %87 = extractvalue { i64, i1 } %85, 1
  br i1 %87, label %102, label %101

88:                                               ; preds = %20, %20
  %89 = load i64, ptr %15, align 8
  %90 = load i64, ptr %11, align 8
  %91 = cmpxchg weak ptr %13, i64 %89, i64 %90 release acquire, align 8
  %92 = extractvalue { i64, i1 } %91, 0
  %93 = extractvalue { i64, i1 } %91, 1
  br i1 %93, label %105, label %104

94:                                               ; preds = %20
  %95 = load i64, ptr %15, align 8
  %96 = load i64, ptr %11, align 8
  %97 = cmpxchg weak ptr %13, i64 %95, i64 %96 release seq_cst, align 8
  %98 = extractvalue { i64, i1 } %97, 0
  %99 = extractvalue { i64, i1 } %97, 1
  br i1 %99, label %108, label %107

100:                                              ; preds = %108, %105, %102
  br label %23

101:                                              ; preds = %82
  store i64 %86, ptr %15, align 8
  br label %102

102:                                              ; preds = %101, %82
  %103 = zext i1 %87 to i8
  store i8 %103, ptr %12, align 1, !tbaa !24
  br label %100

104:                                              ; preds = %88
  store i64 %92, ptr %15, align 8
  br label %105

105:                                              ; preds = %104, %88
  %106 = zext i1 %93 to i8
  store i8 %106, ptr %12, align 1, !tbaa !24
  br label %100

107:                                              ; preds = %94
  store i64 %98, ptr %15, align 8
  br label %108

108:                                              ; preds = %107, %94
  %109 = zext i1 %99 to i8
  store i8 %109, ptr %12, align 1, !tbaa !24
  br label %100

110:                                              ; preds = %21
  %111 = load i64, ptr %15, align 8
  %112 = load i64, ptr %11, align 8
  %113 = cmpxchg weak ptr %13, i64 %111, i64 %112 acq_rel monotonic, align 8
  %114 = extractvalue { i64, i1 } %113, 0
  %115 = extractvalue { i64, i1 } %113, 1
  br i1 %115, label %130, label %129

116:                                              ; preds = %21, %21
  %117 = load i64, ptr %15, align 8
  %118 = load i64, ptr %11, align 8
  %119 = cmpxchg weak ptr %13, i64 %117, i64 %118 acq_rel acquire, align 8
  %120 = extractvalue { i64, i1 } %119, 0
  %121 = extractvalue { i64, i1 } %119, 1
  br i1 %121, label %133, label %132

122:                                              ; preds = %21
  %123 = load i64, ptr %15, align 8
  %124 = load i64, ptr %11, align 8
  %125 = cmpxchg weak ptr %13, i64 %123, i64 %124 acq_rel seq_cst, align 8
  %126 = extractvalue { i64, i1 } %125, 0
  %127 = extractvalue { i64, i1 } %125, 1
  br i1 %127, label %136, label %135

128:                                              ; preds = %136, %133, %130
  br label %23

129:                                              ; preds = %110
  store i64 %114, ptr %15, align 8
  br label %130

130:                                              ; preds = %129, %110
  %131 = zext i1 %115 to i8
  store i8 %131, ptr %12, align 1, !tbaa !24
  br label %128

132:                                              ; preds = %116
  store i64 %120, ptr %15, align 8
  br label %133

133:                                              ; preds = %132, %116
  %134 = zext i1 %121 to i8
  store i8 %134, ptr %12, align 1, !tbaa !24
  br label %128

135:                                              ; preds = %122
  store i64 %126, ptr %15, align 8
  br label %136

136:                                              ; preds = %135, %122
  %137 = zext i1 %127 to i8
  store i8 %137, ptr %12, align 1, !tbaa !24
  br label %128

138:                                              ; preds = %22
  %139 = load i64, ptr %15, align 8
  %140 = load i64, ptr %11, align 8
  %141 = cmpxchg weak ptr %13, i64 %139, i64 %140 seq_cst monotonic, align 8
  %142 = extractvalue { i64, i1 } %141, 0
  %143 = extractvalue { i64, i1 } %141, 1
  br i1 %143, label %158, label %157

144:                                              ; preds = %22, %22
  %145 = load i64, ptr %15, align 8
  %146 = load i64, ptr %11, align 8
  %147 = cmpxchg weak ptr %13, i64 %145, i64 %146 seq_cst acquire, align 8
  %148 = extractvalue { i64, i1 } %147, 0
  %149 = extractvalue { i64, i1 } %147, 1
  br i1 %149, label %161, label %160

150:                                              ; preds = %22
  %151 = load i64, ptr %15, align 8
  %152 = load i64, ptr %11, align 8
  %153 = cmpxchg weak ptr %13, i64 %151, i64 %152 seq_cst seq_cst, align 8
  %154 = extractvalue { i64, i1 } %153, 0
  %155 = extractvalue { i64, i1 } %153, 1
  br i1 %155, label %164, label %163

156:                                              ; preds = %164, %161, %158
  br label %23

157:                                              ; preds = %138
  store i64 %142, ptr %15, align 8
  br label %158

158:                                              ; preds = %157, %138
  %159 = zext i1 %143 to i8
  store i8 %159, ptr %12, align 1, !tbaa !24
  br label %156

160:                                              ; preds = %144
  store i64 %148, ptr %15, align 8
  br label %161

161:                                              ; preds = %160, %144
  %162 = zext i1 %149 to i8
  store i8 %162, ptr %12, align 1, !tbaa !24
  br label %156

163:                                              ; preds = %150
  store i64 %154, ptr %15, align 8
  br label %164

164:                                              ; preds = %163, %150
  %165 = zext i1 %155 to i8
  store i8 %165, ptr %12, align 1, !tbaa !24
  br label %156
}

; Function Attrs: inlinehint mustprogress nounwind uwtable
define internal noundef i64 @_ZNSt3__112_GLOBAL__N_120__libcpp_atomic_loadB8ne210000IlEET_PKS2_i(ptr noundef %0, i32 noundef %1) #4 {
  %3 = alloca ptr, align 8
  %4 = alloca i32, align 4
  %5 = alloca i64, align 8
  store ptr %0, ptr %3, align 8, !tbaa !14
  store i32 %1, ptr %4, align 4, !tbaa !20
  %6 = load ptr, ptr %3, align 8, !tbaa !14
  %7 = load i32, ptr %4, align 4, !tbaa !20
  switch i32 %7, label %8 [
    i32 1, label %10
    i32 2, label %10
    i32 5, label %12
  ]

8:                                                ; preds = %2
  %9 = load atomic i64, ptr %6 monotonic, align 8
  store i64 %9, ptr %5, align 8
  br label %14

10:                                               ; preds = %2, %2
  %11 = load atomic i64, ptr %6 acquire, align 8
  store i64 %11, ptr %5, align 8
  br label %14

12:                                               ; preds = %2
  %13 = load atomic i64, ptr %6 seq_cst, align 8
  store i64 %13, ptr %5, align 8
  br label %14

14:                                               ; preds = %12, %10, %8
  %15 = load i64, ptr %5, align 8, !tbaa !16
  ret i64 %15
}

; Function Attrs: mustprogress nounwind uwtable
define dso_local noundef ptr @_ZNSt3__119__shared_weak_count4lockEv(ptr noundef nonnull align 8 dereferenceable(24) %0) #1 align 2 personality ptr @__gxx_personality_v0 {
  %2 = alloca ptr, align 8
  %3 = alloca ptr, align 8
  %4 = alloca i64, align 8
  %5 = alloca i32, align 4
  store ptr %0, ptr %3, align 8, !tbaa !12
  %6 = load ptr, ptr %3, align 8
  call void @llvm.lifetime.start.p0(i64 8, ptr %4) #8
  %7 = getelementptr inbounds nuw %"class.std::__1::__shared_count", ptr %6, i32 0, i32 1
  %8 = invoke noundef i64 @_ZNSt3__112_GLOBAL__N_120__libcpp_atomic_loadB8ne210000IlEET_PKS2_i(ptr noundef %7, i32 noundef 5)
          to label %9 unwind label %24

9:                                                ; preds = %1
  store i64 %8, ptr %4, align 8, !tbaa !16
  br label %10

10:                                               ; preds = %20, %9
  %11 = load i64, ptr %4, align 8, !tbaa !16
  %12 = icmp ne i64 %11, -1
  br i1 %12, label %13, label %21

13:                                               ; preds = %10
  %14 = getelementptr inbounds nuw %"class.std::__1::__shared_count", ptr %6, i32 0, i32 1
  %15 = load i64, ptr %4, align 8, !tbaa !16
  %16 = add nsw i64 %15, 1
  %17 = invoke noundef zeroext i1 @_ZNSt3__112_GLOBAL__N_132__libcpp_atomic_compare_exchangeB8ne210000IlEEbPT_S3_S2_ii(ptr noundef %14, ptr noundef %4, i64 noundef %16, i32 noundef 5, i32 noundef 5)
          to label %18 unwind label %24

18:                                               ; preds = %13
  br i1 %17, label %19, label %20

19:                                               ; preds = %18
  store ptr %6, ptr %2, align 8
  store i32 1, ptr %5, align 4
  br label %22

20:                                               ; preds = %18
  br label %10, !llvm.loop !22

21:                                               ; preds = %10
  store ptr null, ptr %2, align 8
  store i32 1, ptr %5, align 4
  br label %22

22:                                               ; preds = %21, %19
  call void @llvm.lifetime.end.p0(i64 8, ptr %4) #8
  %23 = load ptr, ptr %2, align 8
  ret ptr %23

24:                                               ; preds = %13, %1
  %25 = landingpad { ptr, i32 }
          catch ptr null
  %26 = extractvalue { ptr, i32 } %25, 0
  call void @__clang_call_terminate(ptr %26) #10
  unreachable
}