; Function Attrs: mustprogress nofree norecurse nounwind memory(argmem: readwrite) uwtable
define dso_local noundef ptr @_ZNSt3__119__shared_weak_count4lockEv(ptr noundef nonnull align 8 captures(ret: address, provenance) dereferenceable(24) %0) local_unnamed_addr #7 align 2 personality ptr @__gxx_personality_v0 {
  %2 = getelementptr inbounds nuw i8, ptr %0, i64 8
  %3 = load atomic i64, ptr %2 seq_cst, align 8
  %.not6 = icmp eq i64 %3, -1
  br i1 %.not6, label %_ZNSt3__112_GLOBAL__N_132__libcpp_atomic_compare_exchangeB8ne210000IlEEbPT_S3_S2_ii.exit.thread, label %.lr.ph

.lr.ph:                                           ; preds = %1, %_ZNSt3__112_GLOBAL__N_132__libcpp_atomic_compare_exchangeB8ne210000IlEEbPT_S3_S2_ii.exit
  %.047 = phi i64 [ %7, %_ZNSt3__112_GLOBAL__N_132__libcpp_atomic_compare_exchangeB8ne210000IlEEbPT_S3_S2_ii.exit ], [ %3, %1 ]
  %4 = add nuw nsw i64 %.047, 1
  %5 = cmpxchg weak ptr %2, i64 %.047, i64 %4 seq_cst seq_cst, align 8
  %6 = extractvalue { i64, i1 } %5, 1
  br i1 %6, label %_ZNSt3__112_GLOBAL__N_132__libcpp_atomic_compare_exchangeB8ne210000IlEEbPT_S3_S2_ii.exit.thread, label %_ZNSt3__112_GLOBAL__N_132__libcpp_atomic_compare_exchangeB8ne210000IlEEbPT_S3_S2_ii.exit

_ZNSt3__112_GLOBAL__N_132__libcpp_atomic_compare_exchangeB8ne210000IlEEbPT_S3_S2_ii.exit: ; preds = %.lr.ph
  %7 = extractvalue { i64, i1 } %5, 0
  %.not = icmp eq i64 %7, -1
  br i1 %.not, label %_ZNSt3__112_GLOBAL__N_132__libcpp_atomic_compare_exchangeB8ne210000IlEEbPT_S3_S2_ii.exit.thread, label %.lr.ph

_ZNSt3__112_GLOBAL__N_132__libcpp_atomic_compare_exchangeB8ne210000IlEEbPT_S3_S2_ii.exit.thread: ; preds = %_ZNSt3__112_GLOBAL__N_132__libcpp_atomic_compare_exchangeB8ne210000IlEEbPT_S3_S2_ii.exit, %.lr.ph, %1
  %.0 = phi ptr [ null, %1 ], [ %0, %.lr.ph ], [ null, %_ZNSt3__112_GLOBAL__N_132__libcpp_atomic_compare_exchangeB8ne210000IlEEbPT_S3_S2_ii.exit ]
  ret ptr %.0
}